; ModuleID = 'source-C-CXX/11/1204.cpp'
source_filename = "source-C-CXX/11/1204.cpp"
target datalayout = "e-m:e-p270:32:32-p271:32:32-p272:64:64-i64:64-f80:128-n8:16:32:64-S128"
target triple = "x86_64-pc-linux-gnu"

%"class.std::ios_base::Init" = type { i8 }
%"class.std::basic_istream" = type { i32 (...)**, i64, %"class.std::basic_ios" }
%"class.std::basic_ios" = type { %"class.std::ios_base", %"class.std::basic_ostream"*, i8, i8, %"class.std::basic_streambuf"*, %"class.std::ctype"*, %"class.std::num_put"*, %"class.std::num_get"* }
%"class.std::ios_base" = type { i32 (...)**, i64, i64, i32, i32, i32, %"struct.std::ios_base::_Callback_list"*, %"struct.std::ios_base::_Words", [8 x %"struct.std::ios_base::_Words"], i32, %"struct.std::ios_base::_Words"*, %"class.std::locale" }
%"struct.std::ios_base::_Callback_list" = type { %"struct.std::ios_base::_Callback_list"*, void (i32, %"class.std::ios_base"*, i32)*, i32, i32 }
%"struct.std::ios_base::_Words" = type { i8*, i64 }
%"class.std::locale" = type { %"class.std::locale::_Impl"* }
%"class.std::locale::_Impl" = type { i32, %"class.std::locale::facet"**, i64, %"class.std::locale::facet"**, i8** }
%"class.std::locale::facet" = type <{ i32 (...)**, i32, [4 x i8] }>
%"class.std::basic_ostream" = type { i32 (...)**, %"class.std::basic_ios" }
%"class.std::basic_streambuf" = type { i32 (...)**, i8*, i8*, i8*, i8*, i8*, i8*, %"class.std::locale" }
%"class.std::ctype" = type <{ %"class.std::locale::facet.base", [4 x i8], %struct.__locale_struct*, i8, [7 x i8], i32*, i32*, i16*, i8, [256 x i8], [256 x i8], i8, [6 x i8] }>
%"class.std::locale::facet.base" = type <{ i32 (...)**, i32 }>
%struct.__locale_struct = type { [13 x %struct.__locale_data*], i16*, i32*, i32*, [13 x i8*] }
%struct.__locale_data = type opaque
%"class.std::num_put" = type { %"class.std::locale::facet.base", [4 x i8] }
%"class.std::num_get" = type { %"class.std::locale::facet.base", [4 x i8] }

@_ZStL8__ioinit = internal global %"class.std::ios_base::Init" zeroinitializer, align 1
@__dso_handle = external hidden global i8
@_ZSt3cin = external global %"class.std::basic_istream", align 8
@_ZSt4cout = external global %"class.std::basic_ostream", align 8
@llvm.global_ctors = appending global [1 x { i32, void ()*, i8* }] [{ i32, void ()*, i8* } { i32 65535, void ()* @_GLOBAL__sub_I_1204.cpp, i8* null }]

declare void @_ZNSt8ios_base4InitC1Ev(%"class.std::ios_base::Init"* nonnull align 1 dereferenceable(1)) unnamed_addr #0

; Function Attrs: nounwind
declare void @_ZNSt8ios_base4InitD1Ev(%"class.std::ios_base::Init"* nonnull align 1 dereferenceable(1)) unnamed_addr #1

; Function Attrs: nofree nounwind
declare i32 @__cxa_atexit(void (i8*)*, i8*, i8*) local_unnamed_addr #2

; Function Attrs: mustprogress norecurse sspstrong uwtable
define dso_local i32 @main() local_unnamed_addr #3 {
  %1 = alloca i32, align 4
  %2 = alloca [16 x i32], align 16
  %3 = alloca i32, align 4
  %4 = bitcast i32* %1 to i8*
  call void @llvm.lifetime.start.p0i8(i64 4, i8* nonnull %4) #8
  %5 = bitcast [16 x i32]* %2 to i8*
  call void @llvm.lifetime.start.p0i8(i64 64, i8* nonnull %5) #8
  %6 = bitcast i32* %3 to i8*
  call void @llvm.lifetime.start.p0i8(i64 4, i8* nonnull %6) #8
  %7 = getelementptr inbounds [16 x i32], [16 x i32]* %2, i64 0, i64 1
  %8 = call nonnull align 8 dereferenceable(16) %"class.std::basic_istream"* @_ZNSirsERi(%"class.std::basic_istream"* nonnull align 8 dereferenceable(16) @_ZSt3cin, i32* nonnull align 4 dereferenceable(4) %3)
  %9 = load i32, i32* %3, align 4, !tbaa !5
  %10 = icmp eq i32 %9, -1
  br i1 %10, label %170, label %11

11:                                               ; preds = %0, %163
  %12 = phi i32 [ %168, %163 ], [ %9, %0 ]
  store i32 %12, i32* %7, align 4, !tbaa !5
  %13 = call nonnull align 8 dereferenceable(16) %"class.std::basic_istream"* @_ZNSirsERi(%"class.std::basic_istream"* nonnull align 8 dereferenceable(16) @_ZSt3cin, i32* nonnull align 4 dereferenceable(4) %1)
  %14 = load i32, i32* %1, align 4, !tbaa !5
  %15 = icmp eq i32 %14, 0
  br i1 %15, label %16, label %32

16:                                               ; preds = %32, %11
  %17 = phi i32 [ 1, %11 ], [ %37, %32 ]
  %18 = add nuw i32 %17, 1
  %19 = zext i32 %18 to i64
  %20 = add nsw i64 %19, -1
  %21 = add nsw i64 %19, -9
  %22 = lshr i64 %21, 3
  %23 = add nuw nsw i64 %22, 1
  %24 = icmp ult i64 %20, 8
  %25 = and i64 %20, -8
  %26 = or i64 %25, 1
  %27 = and i64 %23, 1
  %28 = icmp ult i64 %21, 8
  %29 = and i64 %23, 4611686018427387902
  %30 = icmp eq i64 %27, 0
  %31 = icmp eq i64 %20, %25
  br label %42

32:                                               ; preds = %11, %32
  %33 = phi i64 [ %38, %32 ], [ 2, %11 ]
  %34 = phi i32 [ %40, %32 ], [ %14, %11 ]
  %35 = phi i32 [ %37, %32 ], [ 1, %11 ]
  %36 = getelementptr inbounds [16 x i32], [16 x i32]* %2, i64 0, i64 %33
  store i32 %34, i32* %36, align 4, !tbaa !5
  %37 = add nuw nsw i32 %35, 1
  %38 = add nuw i64 %33, 1
  %39 = call nonnull align 8 dereferenceable(16) %"class.std::basic_istream"* @_ZNSirsERi(%"class.std::basic_istream"* nonnull align 8 dereferenceable(16) @_ZSt3cin, i32* nonnull align 4 dereferenceable(4) %1)
  %40 = load i32, i32* %1, align 4, !tbaa !5
  %41 = icmp eq i32 %40, 0
  br i1 %41, label %16, label %32, !llvm.loop !9

42:                                               ; preds = %16, %132
  %43 = phi i64 [ 1, %16 ], [ %134, %132 ]
  %44 = phi i32 [ 0, %16 ], [ %133, %132 ]
  %45 = getelementptr inbounds [16 x i32], [16 x i32]* %2, i64 0, i64 %43
  %46 = load i32, i32* %45, align 4, !tbaa !5
  br i1 %24, label %118, label %47

47:                                               ; preds = %42
  %48 = insertelement <4 x i32> <i32 poison, i32 0, i32 0, i32 0>, i32 %44, i32 0
  %49 = insertelement <4 x i32> poison, i32 %46, i32 0
  %50 = shufflevector <4 x i32> %49, <4 x i32> poison, <4 x i32> zeroinitializer
  %51 = insertelement <4 x i32> poison, i32 %46, i32 0
  %52 = shufflevector <4 x i32> %51, <4 x i32> poison, <4 x i32> zeroinitializer
  br i1 %28, label %91, label %53

53:                                               ; preds = %47, %53
  %54 = phi i64 [ %88, %53 ], [ 0, %47 ]
  %55 = phi <4 x i32> [ %86, %53 ], [ %48, %47 ]
  %56 = phi <4 x i32> [ %87, %53 ], [ zeroinitializer, %47 ]
  %57 = phi i64 [ %89, %53 ], [ %29, %47 ]
  %58 = or i64 %54, 1
  %59 = getelementptr inbounds [16 x i32], [16 x i32]* %2, i64 0, i64 %58
  %60 = bitcast i32* %59 to <4 x i32>*
  %61 = load <4 x i32>, <4 x i32>* %60, align 4, !tbaa !5
  %62 = getelementptr inbounds i32, i32* %59, i64 4
  %63 = bitcast i32* %62 to <4 x i32>*
  %64 = load <4 x i32>, <4 x i32>* %63, align 4, !tbaa !5
  %65 = shl nsw <4 x i32> %61, <i32 1, i32 1, i32 1, i32 1>
  %66 = shl nsw <4 x i32> %64, <i32 1, i32 1, i32 1, i32 1>
  %67 = icmp eq <4 x i32> %50, %65
  %68 = icmp eq <4 x i32> %52, %66
  %69 = zext <4 x i1> %67 to <4 x i32>
  %70 = zext <4 x i1> %68 to <4 x i32>
  %71 = add <4 x i32> %55, %69
  %72 = add <4 x i32> %56, %70
  %73 = or i64 %54, 9
  %74 = getelementptr inbounds [16 x i32], [16 x i32]* %2, i64 0, i64 %73
  %75 = bitcast i32* %74 to <4 x i32>*
  %76 = load <4 x i32>, <4 x i32>* %75, align 4, !tbaa !5
  %77 = getelementptr inbounds i32, i32* %74, i64 4
  %78 = bitcast i32* %77 to <4 x i32>*
  %79 = load <4 x i32>, <4 x i32>* %78, align 4, !tbaa !5
  %80 = shl nsw <4 x i32> %76, <i32 1, i32 1, i32 1, i32 1>
  %81 = shl nsw <4 x i32> %79, <i32 1, i32 1, i32 1, i32 1>
  %82 = icmp eq <4 x i32> %50, %80
  %83 = icmp eq <4 x i32> %52, %81
  %84 = zext <4 x i1> %82 to <4 x i32>
  %85 = zext <4 x i1> %83 to <4 x i32>
  %86 = add <4 x i32> %71, %84
  %87 = add <4 x i32> %72, %85
  %88 = add nuw i64 %54, 16
  %89 = add i64 %57, -2
  %90 = icmp eq i64 %89, 0
  br i1 %90, label %91, label %53, !llvm.loop !11

91:                                               ; preds = %53, %47
  %92 = phi <4 x i32> [ undef, %47 ], [ %86, %53 ]
  %93 = phi <4 x i32> [ undef, %47 ], [ %87, %53 ]
  %94 = phi i64 [ 0, %47 ], [ %88, %53 ]
  %95 = phi <4 x i32> [ %48, %47 ], [ %86, %53 ]
  %96 = phi <4 x i32> [ zeroinitializer, %47 ], [ %87, %53 ]
  br i1 %30, label %113, label %97

97:                                               ; preds = %91
  %98 = or i64 %94, 1
  %99 = getelementptr inbounds [16 x i32], [16 x i32]* %2, i64 0, i64 %98
  %100 = getelementptr inbounds i32, i32* %99, i64 4
  %101 = bitcast i32* %100 to <4 x i32>*
  %102 = load <4 x i32>, <4 x i32>* %101, align 4, !tbaa !5
  %103 = shl nsw <4 x i32> %102, <i32 1, i32 1, i32 1, i32 1>
  %104 = icmp eq <4 x i32> %52, %103
  %105 = zext <4 x i1> %104 to <4 x i32>
  %106 = add <4 x i32> %96, %105
  %107 = bitcast i32* %99 to <4 x i32>*
  %108 = load <4 x i32>, <4 x i32>* %107, align 4, !tbaa !5
  %109 = shl nsw <4 x i32> %108, <i32 1, i32 1, i32 1, i32 1>
  %110 = icmp eq <4 x i32> %50, %109
  %111 = zext <4 x i1> %110 to <4 x i32>
  %112 = add <4 x i32> %95, %111
  br label %113

113:                                              ; preds = %91, %97
  %114 = phi <4 x i32> [ %92, %91 ], [ %112, %97 ]
  %115 = phi <4 x i32> [ %93, %91 ], [ %106, %97 ]
  %116 = add <4 x i32> %115, %114
  %117 = call i32 @llvm.vector.reduce.add.v4i32(<4 x i32> %116)
  br i1 %31, label %132, label %118

118:                                              ; preds = %42, %113
  %119 = phi i64 [ 1, %42 ], [ %26, %113 ]
  %120 = phi i32 [ %44, %42 ], [ %117, %113 ]
  br label %121

121:                                              ; preds = %118, %121
  %122 = phi i64 [ %130, %121 ], [ %119, %118 ]
  %123 = phi i32 [ %129, %121 ], [ %120, %118 ]
  %124 = getelementptr inbounds [16 x i32], [16 x i32]* %2, i64 0, i64 %122
  %125 = load i32, i32* %124, align 4, !tbaa !5
  %126 = shl nsw i32 %125, 1
  %127 = icmp eq i32 %46, %126
  %128 = zext i1 %127 to i32
  %129 = add nsw i32 %123, %128
  %130 = add nuw nsw i64 %122, 1
  %131 = icmp eq i64 %130, %19
  br i1 %131, label %132, label %121, !llvm.loop !13

132:                                              ; preds = %121, %113
  %133 = phi i32 [ %117, %113 ], [ %129, %121 ]
  %134 = add nuw nsw i64 %43, 1
  %135 = icmp eq i64 %134, %19
  br i1 %135, label %136, label %42, !llvm.loop !15

136:                                              ; preds = %132
  %137 = call nonnull align 8 dereferenceable(8) %"class.std::basic_ostream"* @_ZNSolsEi(%"class.std::basic_ostream"* nonnull align 8 dereferenceable(8) @_ZSt4cout, i32 %133)
  %138 = bitcast %"class.std::basic_ostream"* %137 to i8**
  %139 = load i8*, i8** %138, align 8, !tbaa !16
  %140 = getelementptr i8, i8* %139, i64 -24
  %141 = bitcast i8* %140 to i64*
  %142 = load i64, i64* %141, align 8
  %143 = bitcast %"class.std::basic_ostream"* %137 to i8*
  %144 = add nsw i64 %142, 240
  %145 = getelementptr inbounds i8, i8* %143, i64 %144
  %146 = bitcast i8* %145 to %"class.std::ctype"**
  %147 = load %"class.std::ctype"*, %"class.std::ctype"** %146, align 8, !tbaa !18
  %148 = icmp eq %"class.std::ctype"* %147, null
  br i1 %148, label %149, label %150

149:                                              ; preds = %136
  call void @_ZSt16__throw_bad_castv() #9
  unreachable

150:                                              ; preds = %136
  %151 = getelementptr inbounds %"class.std::ctype", %"class.std::ctype"* %147, i64 0, i32 8
  %152 = load i8, i8* %151, align 8, !tbaa !22
  %153 = icmp eq i8 %152, 0
  br i1 %153, label %157, label %154

154:                                              ; preds = %150
  %155 = getelementptr inbounds %"class.std::ctype", %"class.std::ctype"* %147, i64 0, i32 9, i64 10
  %156 = load i8, i8* %155, align 1, !tbaa !24
  br label %163

157:                                              ; preds = %150
  call void @_ZNKSt5ctypeIcE13_M_widen_initEv(%"class.std::ctype"* nonnull align 8 dereferenceable(570) %147)
  %158 = bitcast %"class.std::ctype"* %147 to i8 (%"class.std::ctype"*, i8)***
  %159 = load i8 (%"class.std::ctype"*, i8)**, i8 (%"class.std::ctype"*, i8)*** %158, align 8, !tbaa !16
  %160 = getelementptr inbounds i8 (%"class.std::ctype"*, i8)*, i8 (%"class.std::ctype"*, i8)** %159, i64 6
  %161 = load i8 (%"class.std::ctype"*, i8)*, i8 (%"class.std::ctype"*, i8)** %160, align 8
  %162 = call signext i8 %161(%"class.std::ctype"* nonnull align 8 dereferenceable(570) %147, i8 signext 10)
  br label %163

163:                                              ; preds = %154, %157
  %164 = phi i8 [ %156, %154 ], [ %162, %157 ]
  %165 = call nonnull align 8 dereferenceable(8) %"class.std::basic_ostream"* @_ZNSo3putEc(%"class.std::basic_ostream"* nonnull align 8 dereferenceable(8) %137, i8 signext %164)
  %166 = call nonnull align 8 dereferenceable(8) %"class.std::basic_ostream"* @_ZNSo5flushEv(%"class.std::basic_ostream"* nonnull align 8 dereferenceable(8) %165)
  %167 = call nonnull align 8 dereferenceable(16) %"class.std::basic_istream"* @_ZNSirsERi(%"class.std::basic_istream"* nonnull align 8 dereferenceable(16) @_ZSt3cin, i32* nonnull align 4 dereferenceable(4) %3)
  %168 = load i32, i32* %3, align 4, !tbaa !5
  %169 = icmp eq i32 %168, -1
  br i1 %169, label %170, label %11, !llvm.loop !25

170:                                              ; preds = %163, %0
  call void @llvm.lifetime.end.p0i8(i64 4, i8* nonnull %6) #8
  call void @llvm.lifetime.end.p0i8(i64 64, i8* nonnull %5) #8
  call void @llvm.lifetime.end.p0i8(i64 4, i8* nonnull %4) #8
  ret i32 0
}

; Function Attrs: argmemonly mustprogress nofree nosync nounwind willreturn
declare void @llvm.lifetime.start.p0i8(i64 immarg, i8* nocapture) #4

declare nonnull align 8 dereferenceable(16) %"class.std::basic_istream"* @_ZNSirsERi(%"class.std::basic_istream"* nonnull align 8 dereferenceable(16), i32* nonnull align 4 dereferenceable(4)) local_unnamed_addr #0

declare nonnull align 8 dereferenceable(8) %"class.std::basic_ostream"* @_ZNSolsEi(%"class.std::basic_ostream"* nonnull align 8 dereferenceable(8), i32) local_unnamed_addr #0

; Function Attrs: argmemonly mustprogress nofree nosync nounwind willreturn
declare void @llvm.lifetime.end.p0i8(i64 immarg, i8* nocapture) #4

declare nonnull align 8 dereferenceable(8) %"class.std::basic_ostream"* @_ZNSo3putEc(%"class.std::basic_ostream"* nonnull align 8 dereferenceable(8), i8 signext) local_unnamed_addr #0

declare nonnull align 8 dereferenceable(8) %"class.std::basic_ostream"* @_ZNSo5flushEv(%"class.std::basic_ostream"* nonnull align 8 dereferenceable(8)) local_unnamed_addr #0

; Function Attrs: noreturn
declare void @_ZSt16__throw_bad_castv() local_unnamed_addr #5

declare void @_ZNKSt5ctypeIcE13_M_widen_initEv(%"class.std::ctype"* nonnull align 8 dereferenceable(570)) local_unnamed_addr #0

; Function Attrs: sspstrong uwtable
define internal void @_GLOBAL__sub_I_1204.cpp() #6 section ".text.startup" {
  tail call void @_ZNSt8ios_base4InitC1Ev(%"class.std::ios_base::Init"* nonnull align 1 dereferenceable(1) @_ZStL8__ioinit)
  %1 = tail call i32 @__cxa_atexit(void (i8*)* bitcast (void (%"class.std::ios_base::Init"*)* @_ZNSt8ios_base4InitD1Ev to void (i8*)*), i8* getelementptr inbounds (%"class.std::ios_base::Init", %"class.std::ios_base::Init"* @_ZStL8__ioinit, i64 0, i32 0), i8* nonnull @__dso_handle) #8
  ret void
}

; Function Attrs: nofree nosync nounwind readnone willreturn
declare i32 @llvm.vector.reduce.add.v4i32(<4 x i32>) #7


!llvm.module.flags = !{!0, !1, !2, !3}
!llvm.ident = !{!4}

!0 = !{i32 1, !"wchar_size", i32 4}
!1 = !{i32 7, !"PIC Level", i32 2}
!2 = !{i32 7, !"PIE Level", i32 2}
!3 = !{i32 7, !"uwtable", i32 1}
!4 = !{!"clang version 13.0.0"}
!5 = !{!6, !6, i64 0}
!6 = !{!"int", !7, i64 0}
!7 = !{!"omnipotent char", !8, i64 0}
!8 = !{!"Simple C++ TBAA"}
!9 = distinct !{!9, !10}
!10 = !{!"llvm.loop.mustprogress"}
!11 = distinct !{!11, !10, !12}
!12 = !{!"llvm.loop.isvectorized", i32 1}
!13 = distinct !{!13, !10, !14, !12}
!14 = !{!"llvm.loop.unroll.runtime.disable"}
!15 = distinct !{!15, !10}
!16 = !{!17, !17, i64 0}
!17 = !{!"vtable pointer", !8, i64 0}
!18 = !{!19, !20, i64 240}
!19 = !{!"_ZTSSt9basic_iosIcSt11char_traitsIcEE", !20, i64 216, !7, i64 224, !21, i64 225, !20, i64 232, !20, i64 240, !20, i64 248, !20, i64 256}
!20 = !{!"any pointer", !7, i64 0}
!21 = !{!"bool", !7, i64 0}
!22 = !{!23, !7, i64 56}
!23 = !{!"_ZTSSt5ctypeIcE", !20, i64 16, !21, i64 24, !20, i64 32, !20, i64 40, !20, i64 48, !7, i64 56, !7, i64 57, !7, i64 313, !7, i64 569}
!24 = !{!7, !7, i64 0}
!25 = distinct !{!25, !10}
